target datalayout = "e-m:e-p270:32:32-p271:32:32-p272:64:64-i64:64-i128:128-f80:128-n8:16:32:64-S128"
target triple = "x86_64-pc-linux-gnu"

@ggml_table_f32_f16 = global [65536 x float] zeroinitializer, align 16

; Function Attrs: inlinehint nounwind uwtable
define internal float @ggml_lookup_fp16_to_fp32(i16 noundef zeroext %0) #7 {
  %2 = alloca i16, align 2
  %3 = alloca i16, align 2
  store i16 %0, ptr %2, align 2, !tbaa !21
  call void @llvm.lifetime.start.p0(i64 2, ptr %3) #14
  call void @llvm.memcpy.p0.p0.i64(ptr align 2 %3, ptr align 2 %2, i64 2, i1 false)
  %4 = load i16, ptr %3, align 2, !tbaa !21
  %5 = zext i16 %4 to i64
  %6 = getelementptr inbounds nuw [65536 x float], ptr @ggml_table_f32_f16, i64 0, i64 %5
  %7 = load float, ptr %6, align 4, !tbaa !23
  call void @llvm.lifetime.end.p0(i64 2, ptr %3) #14
  ret float %7
}

; Function Attrs: nounwind uwtable
define void @ggml_fp16_to_fp32_row(ptr noundef %0, ptr noundef %1, i64 noundef %2) #5 {
  %4 = alloca ptr, align 8
  %5 = alloca ptr, align 8
  %6 = alloca i64, align 8
  %7 = alloca i64, align 8
  store ptr %0, ptr %4, align 8, !tbaa !27
  store ptr %1, ptr %5, align 8, !tbaa !29
  store i64 %2, ptr %6, align 8, !tbaa !19
  call void @llvm.lifetime.start.p0(i64 8, ptr %7) #14
  store i64 0, ptr %7, align 8, !tbaa !19
  br label %8

8:                                                ; preds = %22, %3
  %9 = load i64, ptr %7, align 8, !tbaa !19
  %10 = load i64, ptr %6, align 8, !tbaa !19
  %11 = icmp slt i64 %9, %10
  br i1 %11, label %13, label %12

12:                                               ; preds = %8
  call void @llvm.lifetime.end.p0(i64 8, ptr %7) #14
  br label %25

13:                                               ; preds = %8
  %14 = load ptr, ptr %4, align 8, !tbaa !27
  %15 = load i64, ptr %7, align 8, !tbaa !19
  %16 = getelementptr inbounds i16, ptr %14, i64 %15
  %17 = load i16, ptr %16, align 2, !tbaa !21
  %18 = call float @ggml_lookup_fp16_to_fp32(i16 noundef zeroext %17)
  %19 = load ptr, ptr %5, align 8, !tbaa !29
  %20 = load i64, ptr %7, align 8, !tbaa !19
  %21 = getelementptr inbounds float, ptr %19, i64 %20
  store float %18, ptr %21, align 4, !tbaa !23
  br label %22

22:                                               ; preds = %13
  %23 = load i64, ptr %7, align 8, !tbaa !19
  %24 = add nsw i64 %23, 1
  store i64 %24, ptr %7, align 8, !tbaa !19
  br label %8, !llvm.loop !31

25:                                               ; preds = %12
  ret void
}