; Function Attrs: nofree norecurse nosync nounwind memory(read, argmem: readwrite, inaccessiblemem: none) uwtable
define void @ggml_fp16_to_fp32_row(ptr noundef readonly captures(none) %0, ptr noundef writeonly captures(none) %1, i64 noundef %2) #11 {
  %4 = icmp sgt i64 %2, 0
  br i1 %4, label %.lr.ph, label %._crit_edge

._crit_edge:                                      ; preds = %.lr.ph, %3
  ret void

.lr.ph:                                           ; preds = %3, %.lr.ph
  %.06 = phi i64 [ %11, %.lr.ph ], [ 0, %3 ]
  %5 = getelementptr inbounds nuw i16, ptr %0, i64 %.06
  %6 = load i16, ptr %5, align 2, !tbaa !17
  %7 = zext i16 %6 to i64
  %8 = getelementptr inbounds nuw [65536 x float], ptr @ggml_table_f32_f16, i64 0, i64 %7
  %9 = load float, ptr %8, align 4, !tbaa !15
  %10 = getelementptr inbounds nuw float, ptr %1, i64 %.06
  store float %9, ptr %10, align 4, !tbaa !15
  %11 = add nuw nsw i64 %.06, 1
  %exitcond.not = icmp eq i64 %11, %2
  br i1 %exitcond.not, label %._crit_edge, label %.lr.ph, !llvm.loop !19
}